target datalayout = "e-m:e-p270:32:32-p271:32:32-p272:64:64-i64:64-i128:128-f80:128-n8:16:32:64-S128"
target triple = "x86_64-pc-linux-gnu"

%struct.nstime_t = type { i64, i32 }
%struct.tm = type { i32, i32, i32, i32, i32, i32, i32, i32, i32, i64, ptr }

@.str.21 = private unnamed_addr constant [38 x i8] c"Mktime went wrong. Is the time valid?\00", align 1

; Function Attrs: alwaysinline nounwind
define internal ptr @memset.inline(ptr %0, i32 %1, i64 %2) #7 {
  %4 = alloca ptr, align 8
  %5 = alloca i32, align 4
  %6 = alloca i64, align 8
  store ptr %0, ptr %4, align 8
  store i32 %1, ptr %5, align 4
  store i64 %2, ptr %6, align 8
  %7 = load ptr, ptr %4, align 8
  %8 = load i32, ptr %5, align 4
  %9 = load i64, ptr %6, align 8
  %10 = load ptr, ptr %4, align 8
  %11 = call i64 @llvm.objectsize.i64.p0(ptr %10, i1 false, i1 true, i1 true)
  %12 = call ptr @__memset_chk(ptr noundef %7, i32 noundef %8, i64 noundef %9, i64 noundef %11) #8
  ret ptr %12
}

; Function Attrs: nounwind null_pointer_is_valid sspstrong uwtable
define internal ptr @time_string_to_nstime(ptr noundef %0, ptr noundef %1, ptr noundef %2) #0 {
  %4 = alloca ptr, align 8
  %5 = alloca ptr, align 8
  %6 = alloca ptr, align 8
  %7 = alloca ptr, align 8
  %8 = alloca i32, align 4
  %9 = alloca i32, align 4
  %10 = alloca i32, align 4
  %11 = alloca i32, align 4
  %12 = alloca i32, align 4
  %13 = alloca x86_fp80, align 16
  %14 = alloca %struct.tm, align 8
  %15 = alloca ptr, align 8
  %16 = alloca i64, align 8
  %17 = alloca ptr, align 8
  %18 = alloca i32, align 4
  store ptr %0, ptr %5, align 8
  store ptr %1, ptr %6, align 8
  store ptr %2, ptr %7, align 8
  call void @llvm.lifetime.start.p0(i64 4, ptr %8) #8
  call void @llvm.lifetime.start.p0(i64 4, ptr %9) #8
  call void @llvm.lifetime.start.p0(i64 4, ptr %10) #8
  call void @llvm.lifetime.start.p0(i64 4, ptr %11) #8
  call void @llvm.lifetime.start.p0(i64 4, ptr %12) #8
  call void @llvm.lifetime.start.p0(i64 16, ptr %13) #8
  call void @llvm.lifetime.start.p0(i64 56, ptr %14) #8
  call void @llvm.lifetime.start.p0(i64 8, ptr %15) #8
  call void @llvm.lifetime.start.p0(i64 8, ptr %16) #8
  call void @llvm.lifetime.start.p0(i64 8, ptr %17) #8
  %19 = load ptr, ptr %5, align 8
  %20 = call ptr @time_string_parse(ptr noundef %19, ptr noundef %10, ptr noundef %11, ptr noundef %12, ptr noundef null, ptr noundef %8, ptr noundef %9, ptr noundef %13)
  store ptr %20, ptr %17, align 8
  %21 = icmp ne ptr %20, null
  br i1 %21, label %22, label %24

22:                                               ; preds = %3
  %23 = load ptr, ptr %17, align 8
  store ptr %23, ptr %4, align 8
  store i32 1, ptr %18, align 4
  br label %74

24:                                               ; preds = %3
  %25 = load ptr, ptr %6, align 8
  %26 = getelementptr inbounds nuw %struct.nstime_t, ptr %25, i32 0, i32 0
  %27 = call ptr @localtime(ptr noundef %26) #8
  store ptr %27, ptr %15, align 8
  %28 = load ptr, ptr %15, align 8
  %29 = icmp ne ptr %28, null
  br i1 %29, label %30, label %32

30:                                               ; preds = %24
  %31 = load ptr, ptr %15, align 8
  call void @llvm.memcpy.p0.p0.i64(ptr align 8 %14, ptr align 8 %31, i64 56, i1 false)
  br label %34

32:                                               ; preds = %24
  %33 = call ptr @memset.inline(ptr noundef %14, i32 noundef 0, i64 noundef 56) #8
  br label %34

34:                                               ; preds = %32, %30
  %35 = load i32, ptr %10, align 4
  %36 = icmp ne i32 %35, 0
  br i1 %36, label %37, label %46

37:                                               ; preds = %34
  %38 = load i32, ptr %10, align 4
  %39 = sub i32 %38, 1900
  %40 = getelementptr inbounds nuw %struct.tm, ptr %14, i32 0, i32 5
  store i32 %39, ptr %40, align 4
  %41 = load i32, ptr %11, align 4
  %42 = sub i32 %41, 1
  %43 = getelementptr inbounds nuw %struct.tm, ptr %14, i32 0, i32 4
  store i32 %42, ptr %43, align 8
  %44 = load i32, ptr %12, align 4
  %45 = getelementptr inbounds nuw %struct.tm, ptr %14, i32 0, i32 3
  store i32 %44, ptr %45, align 4
  br label %46

46:                                               ; preds = %37, %34
  %47 = load i32, ptr %8, align 4
  %48 = getelementptr inbounds nuw %struct.tm, ptr %14, i32 0, i32 2
  store i32 %47, ptr %48, align 8
  %49 = load i32, ptr %9, align 4
  %50 = getelementptr inbounds nuw %struct.tm, ptr %14, i32 0, i32 1
  store i32 %49, ptr %50, align 4
  %51 = load x86_fp80, ptr %13, align 16
  %52 = call x86_fp80 @llvm.floor.f80(x86_fp80 %51)
  %53 = fptosi x86_fp80 %52 to i32
  %54 = getelementptr inbounds nuw %struct.tm, ptr %14, i32 0, i32 0
  store i32 %53, ptr %54, align 8
  %55 = getelementptr inbounds nuw %struct.tm, ptr %14, i32 0, i32 8
  store i32 -1, ptr %55, align 8
  %56 = call i64 @mktime(ptr noundef %14) #8
  store i64 %56, ptr %16, align 8
  %57 = load i64, ptr %16, align 8
  %58 = icmp eq i64 %57, -1
  br i1 %58, label %59, label %60

59:                                               ; preds = %46
  store ptr @.str.21, ptr %4, align 8
  store i32 1, ptr %18, align 4
  br label %74

60:                                               ; preds = %46
  %61 = load i64, ptr %16, align 8
  %62 = load ptr, ptr %7, align 8
  %63 = getelementptr inbounds nuw %struct.nstime_t, ptr %62, i32 0, i32 0
  store i64 %61, ptr %63, align 8
  %64 = getelementptr inbounds nuw %struct.tm, ptr %14, i32 0, i32 0
  %65 = load i32, ptr %64, align 8
  %66 = sitofp i32 %65 to x86_fp80
  %67 = load x86_fp80, ptr %13, align 16
  %68 = fsub x86_fp80 %67, %66
  store x86_fp80 %68, ptr %13, align 16
  %69 = load x86_fp80, ptr %13, align 16
  %70 = fmul x86_fp80 %69, 0xK401CEE6B280000000000
  %71 = fptosi x86_fp80 %70 to i32
  %72 = load ptr, ptr %7, align 8
  %73 = getelementptr inbounds nuw %struct.nstime_t, ptr %72, i32 0, i32 1
  store i32 %71, ptr %73, align 8
  store ptr null, ptr %4, align 8
  store i32 1, ptr %18, align 4
  br label %74

74:                                               ; preds = %60, %59, %22
  call void @llvm.lifetime.end.p0(i64 8, ptr %17) #8
  call void @llvm.lifetime.end.p0(i64 8, ptr %16) #8
  call void @llvm.lifetime.end.p0(i64 8, ptr %15) #8
  call void @llvm.lifetime.end.p0(i64 56, ptr %14) #8
  call void @llvm.lifetime.end.p0(i64 16, ptr %13) #8
  call void @llvm.lifetime.end.p0(i64 4, ptr %12) #8
  call void @llvm.lifetime.end.p0(i64 4, ptr %11) #8
  call void @llvm.lifetime.end.p0(i64 4, ptr %10) #8
  call void @llvm.lifetime.end.p0(i64 4, ptr %9) #8
  call void @llvm.lifetime.end.p0(i64 4, ptr %8) #8
  %75 = load ptr, ptr %4, align 8
  ret ptr %75
}