; Function Attrs: nounwind null_pointer_is_valid sspstrong uwtable
define internal fastcc noundef ptr @time_string_to_nstime(ptr noundef nonnull captures(address_is_null) %0, ptr noundef %1, ptr noundef writeonly captures(none) %2) unnamed_addr #6 {
  %4 = alloca i32, align 4
  %5 = alloca i32, align 4
  %6 = alloca i32, align 4
  %7 = alloca i32, align 4
  %8 = alloca i32, align 4
  %9 = alloca x86_fp80, align 16
  %10 = alloca %struct.tm, align 8
  call void @llvm.lifetime.start.p0(i64 4, ptr nonnull %4) #11
  call void @llvm.lifetime.start.p0(i64 4, ptr nonnull %5) #11
  call void @llvm.lifetime.start.p0(i64 4, ptr nonnull %6) #11
  call void @llvm.lifetime.start.p0(i64 4, ptr nonnull %7) #11
  call void @llvm.lifetime.start.p0(i64 4, ptr nonnull %8) #11
  call void @llvm.lifetime.start.p0(i64 16, ptr nonnull %9) #11
  call void @llvm.lifetime.start.p0(i64 56, ptr nonnull %10) #11
  %11 = call ptr @time_string_parse(ptr noundef nonnull %0, ptr noundef nonnull %6, ptr noundef nonnull %7, ptr noundef nonnull %8, ptr noundef null, ptr noundef nonnull %4, ptr noundef nonnull %5, ptr noundef nonnull %9)
  %.not = icmp eq ptr %11, null
  br i1 %.not, label %12, label %46

12:                                               ; preds = %3
  %13 = call ptr @localtime(ptr noundef %1) #11
  %.not13 = icmp eq ptr %13, null
  br i1 %.not13, label %15, label %14

14:                                               ; preds = %12
  call void @llvm.memcpy.p0.p0.i64(ptr noundef nonnull align 8 dereferenceable(56) %10, ptr noundef nonnull align 8 dereferenceable(56) %13, i64 56, i1 false)
  br label %17

15:                                               ; preds = %12
  %16 = getelementptr inbounds nuw i8, ptr %10, i64 8
  call void @llvm.memset.p0.i64(ptr noundef nonnull align 8 dereferenceable(56) %16, i8 noundef 0, i64 noundef 48, i1 noundef false) #11
  br label %17

17:                                               ; preds = %15, %14
  %18 = load i32, ptr %6, align 4
  %.not14 = icmp eq i32 %18, 0
  br i1 %.not14, label %27, label %19

19:                                               ; preds = %17
  %20 = add i32 %18, -1900
  %21 = getelementptr inbounds nuw i8, ptr %10, i64 20
  store i32 %20, ptr %21, align 4
  %22 = load i32, ptr %7, align 4
  %23 = add i32 %22, -1
  %24 = getelementptr inbounds nuw i8, ptr %10, i64 16
  store i32 %23, ptr %24, align 8
  %25 = load i32, ptr %8, align 4
  %26 = getelementptr inbounds nuw i8, ptr %10, i64 12
  store i32 %25, ptr %26, align 4
  br label %27

27:                                               ; preds = %19, %17
  %28 = load i32, ptr %4, align 4
  %29 = getelementptr inbounds nuw i8, ptr %10, i64 8
  store i32 %28, ptr %29, align 8
  %30 = load i32, ptr %5, align 4
  %31 = getelementptr inbounds nuw i8, ptr %10, i64 4
  store i32 %30, ptr %31, align 4
  %32 = load x86_fp80, ptr %9, align 16
  %33 = call x86_fp80 @llvm.floor.f80(x86_fp80 %32)
  %34 = fptosi x86_fp80 %33 to i32
  store i32 %34, ptr %10, align 8
  %35 = getelementptr inbounds nuw i8, ptr %10, i64 32
  store i32 -1, ptr %35, align 8
  %36 = call i64 @mktime(ptr noundef nonnull %10) #11
  %37 = icmp eq i64 %36, -1
  br i1 %37, label %46, label %38

38:                                               ; preds = %27
  store i64 %36, ptr %2, align 8
  %39 = load i32, ptr %10, align 8
  %40 = sitofp i32 %39 to x86_fp80
  %41 = load x86_fp80, ptr %9, align 16
  %42 = fsub x86_fp80 %41, %40
  %43 = fmul x86_fp80 %42, 0xK401CEE6B280000000000
  %44 = fptosi x86_fp80 %43 to i32
  %45 = getelementptr inbounds nuw i8, ptr %2, i64 8
  store i32 %44, ptr %45, align 8
  br label %46

46:                                               ; preds = %27, %3, %38
  %.0 = phi ptr [ null, %38 ], [ %11, %3 ], [ @.str.21, %27 ]
  call void @llvm.lifetime.end.p0(i64 56, ptr nonnull %10) #11
  call void @llvm.lifetime.end.p0(i64 16, ptr nonnull %9) #11
  call void @llvm.lifetime.end.p0(i64 4, ptr nonnull %8) #11
  call void @llvm.lifetime.end.p0(i64 4, ptr nonnull %7) #11
  call void @llvm.lifetime.end.p0(i64 4, ptr nonnull %6) #11
  call void @llvm.lifetime.end.p0(i64 4, ptr nonnull %5) #11
  call void @llvm.lifetime.end.p0(i64 4, ptr nonnull %4) #11
  ret ptr %.0
}